; Function Attrs: nounwind uwtable
define hidden ptr @X509_ATTRIBUTE_get0_type(ptr noundef readonly captures(address_is_null) %0, i32 noundef %1) local_unnamed_addr #0 {
  %3 = icmp eq ptr %0, null
  br i1 %3, label %19, label %4

4:                                                ; preds = %2
  %5 = getelementptr inbounds nuw i8, ptr %0, i64 8
  %6 = load i32, ptr %5, align 8, !tbaa !19
  %.not.i = icmp eq i32 %6, 0
  %7 = getelementptr inbounds nuw i8, ptr %0, i64 16
  %8 = load ptr, ptr %7, align 8, !tbaa !20
  br i1 %.not.i, label %9, label %12

9:                                                ; preds = %4
  %10 = tail call i64 @sk_num(ptr noundef %8) #4
  %11 = trunc i64 %10 to i32
  br label %X509_ATTRIBUTE_count.exit

12:                                               ; preds = %4
  %.not3.i = icmp ne ptr %8, null
  %..i = zext i1 %.not3.i to i32
  br label %X509_ATTRIBUTE_count.exit

X509_ATTRIBUTE_count.exit:                        ; preds = %9, %12
  %.0.i = phi i32 [ %11, %9 ], [ %..i, %12 ]
  %.not = icmp slt i32 %1, %.0.i
  br i1 %.not, label %13, label %19

13:                                               ; preds = %X509_ATTRIBUTE_count.exit
  %14 = load i32, ptr %5, align 8, !tbaa !19
  %.not9 = icmp eq i32 %14, 0
  %15 = load ptr, ptr %7, align 8, !tbaa !20
  br i1 %.not9, label %16, label %19

16:                                               ; preds = %13
  %17 = sext i32 %1 to i64
  %18 = tail call ptr @sk_value(ptr noundef %15, i64 noundef %17) #4
  br label %19

19:                                               ; preds = %13, %X509_ATTRIBUTE_count.exit, %2, %16
  %.0 = phi ptr [ %18, %16 ], [ null, %2 ], [ null, %X509_ATTRIBUTE_count.exit ], [ %15, %13 ]
  ret ptr %.0
}